target datalayout = "e-m:e-p270:32:32-p271:32:32-p272:64:64-i64:64-i128:128-f80:128-n8:16:32:64-S128"
target triple = "x86_64-pc-linux-gnu"

%"class.cvc5::internal::NodeTemplate" = type { ptr }
%"class.cvc5::internal::theory::quantifiers::QuantifiersModule" = type { %"class.cvc5::internal::EnvObj", ptr, ptr, ptr, ptr }
%"class.cvc5::internal::EnvObj" = type { ptr, ptr }

; Function Attrs: mustprogress uwtable
define linkonce_odr hidden void @_ZN4cvc58internal4expr9NodeValue3incEv(ptr noundef nonnull align 8 dereferenceable(24) %0) #4 comdat align 2 {
  %2 = alloca ptr, align 8
  store ptr %0, ptr %2, align 8, !tbaa !529
  %3 = load ptr, ptr %2, align 8
  %4 = load i64, ptr %3, align 8
  %5 = lshr i64 %4, 40
  %6 = and i64 %5, 1048575
  %7 = trunc i64 %6 to i32
  %8 = icmp ult i32 %7, 1048574
  %9 = zext i1 %8 to i64
  %10 = call i64 @llvm.expect.i64(i64 %9, i64 1)
  %11 = icmp ne i64 %10, 0
  br i1 %11, label %12, label %24

12:                                               ; preds = %1
  %13 = load i64, ptr %3, align 8
  %14 = lshr i64 %13, 40
  %15 = and i64 %14, 1048575
  %16 = trunc i64 %15 to i32
  %17 = add i32 %16, 1
  %18 = zext i32 %17 to i64
  %19 = load i64, ptr %3, align 8
  %20 = and i64 %18, 1048575
  %21 = shl i64 %20, 40
  %22 = and i64 %19, -1152920405095219201
  %23 = or i64 %22, %21
  store i64 %23, ptr %3, align 8
  br label %46

24:                                               ; preds = %1
  %25 = load i64, ptr %3, align 8
  %26 = lshr i64 %25, 40
  %27 = and i64 %26, 1048575
  %28 = trunc i64 %27 to i32
  %29 = icmp eq i32 %28, 1048574
  %30 = zext i1 %29 to i64
  %31 = call i64 @llvm.expect.i64(i64 %30, i64 0)
  %32 = icmp ne i64 %31, 0
  br i1 %32, label %33, label %45

33:                                               ; preds = %24
  %34 = load i64, ptr %3, align 8
  %35 = lshr i64 %34, 40
  %36 = and i64 %35, 1048575
  %37 = trunc i64 %36 to i32
  %38 = add i32 %37, 1
  %39 = zext i32 %38 to i64
  %40 = load i64, ptr %3, align 8
  %41 = and i64 %39, 1048575
  %42 = shl i64 %41, 40
  %43 = and i64 %40, -1152920405095219201
  %44 = or i64 %43, %42
  store i64 %44, ptr %3, align 8
  call void @_ZN4cvc58internal4expr9NodeValue20markRefCountMaxedOutEv(ptr noundef nonnull align 8 dereferenceable(24) %3)
  br label %45

45:                                               ; preds = %33, %24
  br label %46

46:                                               ; preds = %45, %12
  ret void
}

; Function Attrs: mustprogress uwtable
define linkonce_odr hidden void @_ZN4cvc58internal12NodeTemplateILb1EEC2ERKS2_(ptr noundef nonnull align 8 dereferenceable(8) %0, ptr noundef nonnull align 8 dereferenceable(8) %1) unnamed_addr #4 comdat align 2 {
  %3 = alloca ptr, align 8
  %4 = alloca ptr, align 8
  store ptr %0, ptr %3, align 8, !tbaa !17
  store ptr %1, ptr %4, align 8, !tbaa !17
  %5 = load ptr, ptr %3, align 8
  %6 = load ptr, ptr %4, align 8, !tbaa !17
  %7 = getelementptr inbounds nuw %"class.cvc5::internal::NodeTemplate", ptr %6, i32 0, i32 0
  %8 = load ptr, ptr %7, align 8, !tbaa !39
  %9 = getelementptr inbounds nuw %"class.cvc5::internal::NodeTemplate", ptr %5, i32 0, i32 0
  store ptr %8, ptr %9, align 8, !tbaa !39
  %10 = getelementptr inbounds nuw %"class.cvc5::internal::NodeTemplate", ptr %5, i32 0, i32 0
  %11 = load ptr, ptr %10, align 8, !tbaa !39
  call void @_ZN4cvc58internal4expr9NodeValue3incEv(ptr noundef nonnull align 8 dereferenceable(24) %11)
  ret void
}

; Function Attrs: mustprogress uwtable
define hidden noundef i32 @_ZN4cvc58internal6theory11quantifiers17InstStrategyCegqi10needsModelENS1_6Theory6EffortE(ptr noundef nonnull align 8 dereferenceable(560) %0, i32 noundef %1) unnamed_addr #4 align 2 personality ptr @__gxx_personality_v0 {
  %3 = alloca i32, align 4
  %4 = alloca ptr, align 8
  %5 = alloca i32, align 4
  %6 = alloca i64, align 8
  %7 = alloca i64, align 8
  %8 = alloca i32, align 4
  %9 = alloca %"class.cvc5::internal::NodeTemplate", align 8
  %10 = alloca %"class.cvc5::internal::NodeTemplate", align 8
  %11 = alloca ptr, align 8
  %12 = alloca i32, align 4
  store ptr %0, ptr %4, align 8, !tbaa !8
  store i32 %1, ptr %5, align 4, !tbaa !370
  %13 = load ptr, ptr %4, align 8
  call void @llvm.lifetime.start.p0(i64 8, ptr %6) #3
  %14 = getelementptr inbounds nuw %"class.cvc5::internal::theory::quantifiers::QuantifiersModule", ptr %13, i32 0, i32 4
  %15 = load ptr, ptr %14, align 8, !tbaa !29
  %16 = call noundef ptr @_ZNK4cvc58internal6theory11quantifiers12TermRegistry8getModelEv(ptr noundef nonnull align 8 dereferenceable(104) %15)
  %17 = call noundef i64 @_ZNK4cvc58internal6theory11quantifiers15FirstOrderModel25getNumAssertedQuantifiersEv(ptr noundef nonnull align 8 dereferenceable(664) %16)
  store i64 %17, ptr %6, align 8, !tbaa !372
  call void @llvm.lifetime.start.p0(i64 8, ptr %7) #3
  store i64 0, ptr %7, align 8, !tbaa !372
  br label %18

18:                                               ; preds = %45, %2
  %19 = load i64, ptr %7, align 8, !tbaa !372
  %20 = load i64, ptr %6, align 8, !tbaa !372
  %21 = icmp ult i64 %19, %20
  br i1 %21, label %23, label %22

22:                                               ; preds = %18
  store i32 2, ptr %8, align 4
  br label %49

23:                                               ; preds = %18
  call void @llvm.lifetime.start.p0(i64 8, ptr %9) #3
  %24 = getelementptr inbounds nuw %"class.cvc5::internal::theory::quantifiers::QuantifiersModule", ptr %13, i32 0, i32 4
  %25 = load ptr, ptr %24, align 8, !tbaa !29
  %26 = call noundef ptr @_ZNK4cvc58internal6theory11quantifiers12TermRegistry8getModelEv(ptr noundef nonnull align 8 dereferenceable(104) %25)
  %27 = load i64, ptr %7, align 8, !tbaa !372
  %28 = trunc i64 %27 to i32
  call void @_ZN4cvc58internal6theory11quantifiers15FirstOrderModel21getAssertedQuantifierEjb(ptr dead_on_unwind writable sret(%"class.cvc5::internal::NodeTemplate") align 8 %9, ptr noundef nonnull align 8 dereferenceable(664) %26, i32 noundef %28, i1 noundef zeroext false)
  invoke void @_ZN4cvc58internal12NodeTemplateILb1EEC2ERKS2_(ptr noundef nonnull align 8 dereferenceable(8) %10, ptr noundef nonnull align 8 dereferenceable(8) %9)
          to label %29 unwind label %33

29:                                               ; preds = %23
  %30 = invoke noundef zeroext i1 @_ZN4cvc58internal6theory11quantifiers17InstStrategyCegqi6doCbqiENS0_12NodeTemplateILb1EEE(ptr noundef nonnull align 8 dereferenceable(560) %13, ptr noundef %10)
          to label %31 unwind label %37

31:                                               ; preds = %29
  call void @_ZN4cvc58internal12NodeTemplateILb1EED2Ev(ptr noundef nonnull align 8 dereferenceable(8) %10) #3
  br i1 %30, label %32, label %41

32:                                               ; preds = %31
  store i32 1, ptr %3, align 4
  store i32 1, ptr %8, align 4
  br label %42

33:                                               ; preds = %23
  %34 = landingpad { ptr, i32 }
          cleanup
  %35 = extractvalue { ptr, i32 } %34, 0
  store ptr %35, ptr %11, align 8
  %36 = extractvalue { ptr, i32 } %34, 1
  store i32 %36, ptr %12, align 4
  br label %48

37:                                               ; preds = %29
  %38 = landingpad { ptr, i32 }
          cleanup
  %39 = extractvalue { ptr, i32 } %38, 0
  store ptr %39, ptr %11, align 8
  %40 = extractvalue { ptr, i32 } %38, 1
  store i32 %40, ptr %12, align 4
  call void @_ZN4cvc58internal12NodeTemplateILb1EED2Ev(ptr noundef nonnull align 8 dereferenceable(8) %10) #3
  br label %48

41:                                               ; preds = %31
  store i32 0, ptr %8, align 4
  br label %42

42:                                               ; preds = %41, %32
  call void @_ZN4cvc58internal12NodeTemplateILb1EED2Ev(ptr noundef nonnull align 8 dereferenceable(8) %9) #3
  call void @llvm.lifetime.end.p0(i64 8, ptr %9) #3
  %43 = load i32, ptr %8, align 4
  switch i32 %43, label %49 [
    i32 0, label %44
  ]

44:                                               ; preds = %42
  br label %45

45:                                               ; preds = %44
  %46 = load i64, ptr %7, align 8, !tbaa !372
  %47 = add i64 %46, 1
  store i64 %47, ptr %7, align 8, !tbaa !372
  br label %18, !llvm.loop !373

48:                                               ; preds = %37, %33
  call void @_ZN4cvc58internal12NodeTemplateILb1EED2Ev(ptr noundef nonnull align 8 dereferenceable(8) %9) #3
  call void @llvm.lifetime.end.p0(i64 8, ptr %9) #3
  call void @llvm.lifetime.end.p0(i64 8, ptr %7) #3
  call void @llvm.lifetime.end.p0(i64 8, ptr %6) #3
  br label %54

49:                                               ; preds = %42, %22
  call void @llvm.lifetime.end.p0(i64 8, ptr %7) #3
  %50 = load i32, ptr %8, align 4
  switch i32 %50, label %52 [
    i32 2, label %51
  ]

51:                                               ; preds = %49
  store i32 4, ptr %3, align 4
  store i32 1, ptr %8, align 4
  br label %52

52:                                               ; preds = %51, %49
  call void @llvm.lifetime.end.p0(i64 8, ptr %6) #3
  %53 = load i32, ptr %3, align 4
  ret i32 %53

54:                                               ; preds = %48
  %55 = load ptr, ptr %11, align 8
  %56 = load i32, ptr %12, align 4
  %57 = insertvalue { ptr, i32 } poison, ptr %55, 0
  %58 = insertvalue { ptr, i32 } %57, i32 %56, 1
  resume { ptr, i32 } %58
}