; Function Attrs: mustprogress uwtable
define hidden noundef range(i32 1, 5) i32 @_ZN4cvc58internal6theory11quantifiers17InstStrategyCegqi10needsModelENS1_6Theory6EffortE(ptr noundef nonnull align 8 dereferenceable(560) %0, i32 %1) unnamed_addr #4 align 2 personality ptr @__gxx_personality_v0 {
  %3 = alloca %"class.cvc5::internal::NodeTemplate", align 8
  %4 = alloca %"class.cvc5::internal::NodeTemplate", align 8
  %5 = getelementptr inbounds nuw i8, ptr %0, i64 40
  %6 = load ptr, ptr %5, align 8, !tbaa !19
  %7 = tail call noundef ptr @_ZNK4cvc58internal6theory11quantifiers12TermRegistry8getModelEv(ptr noundef nonnull align 8 dereferenceable(104) %6)
  %8 = tail call noundef i64 @_ZNK4cvc58internal6theory11quantifiers15FirstOrderModel25getNumAssertedQuantifiersEv(ptr noundef nonnull align 8 dereferenceable(664) %7)
  %.not18.not = icmp eq i64 %8, 0
  br i1 %.not18.not, label %._crit_edge, label %.lr.ph

9:                                                ; preds = %_ZN4cvc58internal12NodeTemplateILb1EED2Ev.exit17
  %10 = add nuw i64 %.01219, 1
  %exitcond.not = icmp eq i64 %10, %8
  br i1 %exitcond.not, label %._crit_edge, label %.lr.ph, !llvm.loop !360

.lr.ph:                                           ; preds = %2, %9
  %.01219 = phi i64 [ %10, %9 ], [ 0, %2 ]
  call void @llvm.lifetime.start.p0(i64 8, ptr nonnull %3) #30
  %11 = load ptr, ptr %5, align 8, !tbaa !19
  %12 = call noundef ptr @_ZNK4cvc58internal6theory11quantifiers12TermRegistry8getModelEv(ptr noundef nonnull align 8 dereferenceable(104) %11)
  %13 = trunc i64 %.01219 to i32
  call void @_ZN4cvc58internal6theory11quantifiers15FirstOrderModel21getAssertedQuantifierEjb(ptr dead_on_unwind nonnull writable sret(%"class.cvc5::internal::NodeTemplate") align 8 %3, ptr noundef nonnull align 8 dereferenceable(664) %12, i32 noundef %13, i1 noundef zeroext false)
  %14 = load ptr, ptr %3, align 8, !tbaa !12
  store ptr %14, ptr %4, align 8, !tbaa !12
  %15 = load i64, ptr %14, align 8
  %16 = lshr i64 %15, 40
  %17 = trunc nuw nsw i64 %16 to i32
  %18 = and i32 %17, 1048575
  %19 = icmp samesign ult i32 %18, 1048574
  br i1 %19, label %20, label %25, !prof !15

20:                                               ; preds = %.lr.ph
  %21 = add i64 %15, 1099511627776
  %22 = and i64 %21, 1152920405095219200
  %23 = and i64 %15, -1152920405095219201
  %24 = or disjoint i64 %22, %23
  store i64 %24, ptr %14, align 8
  br label %_ZN4cvc58internal12NodeTemplateILb1EEC2ERKS2_.exit

25:                                               ; preds = %.lr.ph
  %26 = icmp eq i32 %18, 1048574
  br i1 %26, label %27, label %_ZN4cvc58internal12NodeTemplateILb1EEC2ERKS2_.exit, !prof !16

27:                                               ; preds = %25
  %28 = or i64 %15, 1152920405095219200
  store i64 %28, ptr %14, align 8
  invoke void @_ZN4cvc58internal4expr9NodeValue20markRefCountMaxedOutEv(ptr noundef nonnull align 8 dereferenceable(24) %14)
          to label %_ZN4cvc58internal12NodeTemplateILb1EEC2ERKS2_.exit unwind label %57

_ZN4cvc58internal12NodeTemplateILb1EEC2ERKS2_.exit: ; preds = %25, %20, %27
  %29 = invoke noundef zeroext i1 @_ZN4cvc58internal6theory11quantifiers17InstStrategyCegqi6doCbqiENS0_12NodeTemplateILb1EEE(ptr noundef nonnull align 8 dereferenceable(560) %0, ptr noundef nonnull %4)
          to label %30 unwind label %59

30:                                               ; preds = %_ZN4cvc58internal12NodeTemplateILb1EEC2ERKS2_.exit
  %31 = load ptr, ptr %4, align 8, !tbaa !12
  %32 = load i64, ptr %31, align 8
  %33 = and i64 %32, 1152920405095219200
  %.not.i.i = icmp eq i64 %33, 1152920405095219200
  br i1 %.not.i.i, label %_ZN4cvc58internal12NodeTemplateILb1EED2Ev.exit, label %34, !prof !16

34:                                               ; preds = %30
  %35 = add i64 %32, 1152920405095219200
  %36 = and i64 %35, 1152920405095219200
  %37 = and i64 %32, -1152920405095219201
  %38 = or disjoint i64 %36, %37
  store i64 %38, ptr %31, align 8
  %39 = icmp eq i64 %36, 0
  br i1 %39, label %40, label %_ZN4cvc58internal12NodeTemplateILb1EED2Ev.exit, !prof !16

40:                                               ; preds = %34
  invoke void @_ZN4cvc58internal4expr9NodeValue15markForDeletionEv(ptr noundef nonnull align 8 dereferenceable(24) %31)
          to label %_ZN4cvc58internal12NodeTemplateILb1EED2Ev.exit unwind label %41

41:                                               ; preds = %40
  %42 = landingpad { ptr, i32 }
          catch ptr null
  %43 = extractvalue { ptr, i32 } %42, 0
  call void @__clang_call_terminate(ptr %43) #29
  unreachable

_ZN4cvc58internal12NodeTemplateILb1EED2Ev.exit:   ; preds = %30, %34, %40
  %44 = load ptr, ptr %3, align 8, !tbaa !12
  %45 = load i64, ptr %44, align 8
  %46 = and i64 %45, 1152920405095219200
  %.not.i.i16 = icmp eq i64 %46, 1152920405095219200
  br i1 %.not.i.i16, label %_ZN4cvc58internal12NodeTemplateILb1EED2Ev.exit17, label %47, !prof !16

47:                                               ; preds = %_ZN4cvc58internal12NodeTemplateILb1EED2Ev.exit
  %48 = add i64 %45, 1152920405095219200
  %49 = and i64 %48, 1152920405095219200
  %50 = and i64 %45, -1152920405095219201
  %51 = or disjoint i64 %49, %50
  store i64 %51, ptr %44, align 8
  %52 = icmp eq i64 %49, 0
  br i1 %52, label %53, label %_ZN4cvc58internal12NodeTemplateILb1EED2Ev.exit17, !prof !16

53:                                               ; preds = %47
  invoke void @_ZN4cvc58internal4expr9NodeValue15markForDeletionEv(ptr noundef nonnull align 8 dereferenceable(24) %44)
          to label %_ZN4cvc58internal12NodeTemplateILb1EED2Ev.exit17 unwind label %54

54:                                               ; preds = %53
  %55 = landingpad { ptr, i32 }
          catch ptr null
  %56 = extractvalue { ptr, i32 } %55, 0
  call void @__clang_call_terminate(ptr %56) #29
  unreachable

_ZN4cvc58internal12NodeTemplateILb1EED2Ev.exit17: ; preds = %_ZN4cvc58internal12NodeTemplateILb1EED2Ev.exit, %47, %53
  call void @llvm.lifetime.end.p0(i64 8, ptr nonnull %3) #30
  br i1 %29, label %._crit_edge, label %9

57:                                               ; preds = %27
  %58 = landingpad { ptr, i32 }
          cleanup
  br label %61

59:                                               ; preds = %_ZN4cvc58internal12NodeTemplateILb1EEC2ERKS2_.exit
  %60 = landingpad { ptr, i32 }
          cleanup
  call void @_ZN4cvc58internal12NodeTemplateILb1EED2Ev(ptr noundef nonnull align 8 dereferenceable(8) %4) #30
  br label %61

61:                                               ; preds = %59, %57
  %.pn = phi { ptr, i32 } [ %60, %59 ], [ %58, %57 ]
  call void @_ZN4cvc58internal12NodeTemplateILb1EED2Ev(ptr noundef nonnull align 8 dereferenceable(8) %3) #30
  call void @llvm.lifetime.end.p0(i64 8, ptr nonnull %3) #30
  resume { ptr, i32 } %.pn

._crit_edge:                                      ; preds = %_ZN4cvc58internal12NodeTemplateILb1EED2Ev.exit17, %9, %2
  %spec.select = phi i32 [ 4, %2 ], [ 4, %9 ], [ 1, %_ZN4cvc58internal12NodeTemplateILb1EED2Ev.exit17 ]
  ret i32 %spec.select
}